target datalayout = "e-m:e-p270:32:32-p271:32:32-p272:64:64-i64:64-i128:128-f80:128-n8:16:32:64-S128"
target triple = "x86_64-pc-linux-gnu"

%struct._zend_jit_globals = type { i8, i8, i8, i8, i32, ptr, i64, i64, i64, double, i64, i64, i64, i64, i64, i64, i64, i64, i64, i64, i64, i64, i64, i64, ptr, i8, ptr, ptr, [64 x ptr], [64 x i8], [64 x i8], i32, ptr }
%struct._zend_array = type { %struct._zend_refcounted_h, %union.anon.17, i32, %union.anon.19, i32, i32, i32, i32, i64, ptr }
%struct._zend_refcounted_h = type { i32, %union.anon.16 }
%union.anon.16 = type { i32 }
%union.anon.17 = type { i32 }
%union.anon.19 = type { ptr }
%struct._ir_ctx = type { ptr, i32, i32, i32, i32, i32, i32, i32, i32, i32, i32, %struct._ir_insn, ptr, ptr, ptr, i32, i32, i32, ptr, ptr, ptr, ptr, ptr, i32, i32, i64, i32, i32, i32, i64, i32, i32, i32, i32, ptr, ptr, ptr, ptr, ptr, ptr, %union.anon.13, ptr, i32, i32, i32, i64, i32, i32, i32, ptr, ptr, ptr, ptr, %struct._ir_strtab, [61 x i32], [14 x i32] }
%struct._ir_insn = type { %struct.anon, %union.anon.5 }
%struct.anon = type { %union.anon, %union.anon.4 }
%union.anon = type { i32 }
%union.anon.4 = type { i32 }
%union.anon.5 = type { %union._ir_val }
%union._ir_val = type { double }
%union.anon.13 = type { ptr }
%struct._ir_strtab = type { ptr, i32, i32, i32, i32, ptr, i32, i32 }
%struct._zend_jit_trace_stack = type { %union.anon.14, i32 }
%union.anon.14 = type { i32 }
%struct._zend_jit_ctx = type { %struct._ir_ctx, ptr, i8, i8, i8, i32, i32, i32, i32, i32, ptr, ptr, ptr, ptr, ptr, ptr, ptr, ptr, ptr, i32, ptr, i32, %struct._zend_array, [32 x i32] }
%struct.anon.15 = type { i8, i8, i8, i8 }
%struct._zend_jit_trace_stack_frame = type { ptr, ptr, ptr, ptr, ptr, i32, i32, i32, i32, i32, [1 x %struct._zend_jit_trace_stack] }

@jit_globals = hidden global %struct._zend_jit_globals zeroinitializer, align 8

; Function Attrs: nounwind uwtable
define internal void @jit_set_Z_TYPE_INFO(ptr noundef %0, i64 noundef %1, i32 noundef %2) #0 {
  %4 = alloca ptr, align 8
  %5 = alloca i64, align 8
  %6 = alloca i32, align 4
  store ptr %0, ptr %4, align 8
  store i64 %1, ptr %5, align 8
  store i32 %2, ptr %6, align 4
  %7 = load i32, ptr %6, align 4
  %8 = icmp ult i32 %7, 6
  br i1 %8, label %9, label %42

9:                                                ; preds = %3
  %10 = load i64, ptr %5, align 8
  %11 = and i64 %10, 3
  %12 = icmp eq i64 %11, 1
  br i1 %12, label %13, label %42

13:                                               ; preds = %9
  %14 = load i64, ptr %5, align 8
  %15 = lshr i64 %14, 2
  %16 = and i64 %15, 63
  %17 = trunc i64 %16 to i8
  %18 = sext i8 %17 to i32
  %19 = icmp eq i32 %18, 14
  br i1 %19, label %20, label %42

20:                                               ; preds = %13
  %21 = load ptr, ptr getelementptr inbounds (%struct._zend_jit_globals, ptr @jit_globals, i32 0, i32 27), align 8
  %22 = icmp ne ptr %21, null
  br i1 %22, label %23, label %42

23:                                               ; preds = %20
  %24 = load ptr, ptr getelementptr inbounds (%struct._zend_jit_globals, ptr @jit_globals, i32 0, i32 27), align 8
  %25 = getelementptr inbounds %struct._zend_jit_trace_stack_frame, ptr %24, i32 0, i32 10
  %26 = load i64, ptr %5, align 8
  %27 = lshr i64 %26, 8
  %28 = trunc i64 %27 to i32
  %29 = zext i32 %28 to i64
  %30 = udiv i64 %29, 16
  %31 = sub i64 %30, 5
  %32 = trunc i64 %31 to i32
  %33 = zext i32 %32 to i64
  %34 = getelementptr inbounds [1 x %struct._zend_jit_trace_stack], ptr %25, i64 0, i64 %33
  %35 = getelementptr inbounds %struct._zend_jit_trace_stack, ptr %34, i32 0, i32 0
  %36 = getelementptr inbounds %struct.anon.15, ptr %35, i32 0, i32 1
  %37 = load i8, ptr %36, align 1
  %38 = zext i8 %37 to i32
  %39 = load i32, ptr %6, align 4
  %40 = icmp eq i32 %38, %39
  br i1 %40, label %41, label %42

41:                                               ; preds = %23
  br label %49

42:                                               ; preds = %23, %20, %13, %9, %3
  %43 = load ptr, ptr %4, align 8
  %44 = load i64, ptr %5, align 8
  %45 = load ptr, ptr %4, align 8
  %46 = getelementptr inbounds %struct._zend_jit_ctx, ptr %45, i32 0, i32 0
  %47 = load i32, ptr %6, align 4
  %48 = call i32 @ir_const_u32(ptr noundef %46, i32 noundef %47)
  call void @jit_set_Z_TYPE_INFO_ex(ptr noundef %43, i64 noundef %44, i32 noundef %48)
  br label %49

49:                                               ; preds = %42, %41
  ret void
}

; Function Attrs: nounwind uwtable
define internal void @jit_set_Z_DVAL(ptr noundef %0, i64 noundef %1, i32 noundef %2) #0 {
  %4 = alloca ptr, align 8
  %5 = alloca i64, align 8
  %6 = alloca i32, align 4
  store ptr %0, ptr %4, align 8
  store i64 %1, ptr %5, align 8
  store i32 %2, ptr %6, align 4
  %7 = load i64, ptr %5, align 8
  %8 = and i64 %7, 3
  %9 = icmp eq i64 %8, 2
  br i1 %9, label %10, label %14

10:                                               ; preds = %3
  %11 = load ptr, ptr %4, align 8
  %12 = load i64, ptr %5, align 8
  %13 = load i32, ptr %6, align 4
  call void @zend_jit_def_reg(ptr noundef %11, i64 noundef %12, i32 noundef %13)
  br label %21

14:                                               ; preds = %3
  %15 = load ptr, ptr %4, align 8
  %16 = getelementptr inbounds %struct._zend_jit_ctx, ptr %15, i32 0, i32 0
  %17 = load ptr, ptr %4, align 8
  %18 = load i64, ptr %5, align 8
  %19 = call i32 @jit_ZVAL_ADDR(ptr noundef %17, i64 noundef %18)
  %20 = load i32, ptr %6, align 4
  call void @_ir_STORE(ptr noundef %16, i32 noundef %19, i32 noundef %20)
  br label %21

21:                                               ; preds = %14, %10
  ret void
}

; Function Attrs: nounwind uwtable
define internal i32 @zend_jit_math_double_long(ptr noundef %0, i8 noundef zeroext %1, i64 noundef %2, i64 noundef %3, i64 noundef %4, i32 noundef %5) #0 {
  %7 = alloca i1, align 1
  %8 = alloca i64, align 8
  %9 = alloca i64, align 8
  %10 = alloca ptr, align 8
  %11 = alloca i8, align 1
  %12 = alloca i64, align 8
  %13 = alloca i64, align 8
  %14 = alloca i64, align 8
  %15 = alloca i32, align 4
  %16 = alloca i32, align 4
  %17 = alloca i32, align 4
  %18 = alloca i32, align 4
  %19 = alloca i32, align 4
  store ptr %0, ptr %10, align 8
  store i8 %1, ptr %11, align 1
  store i64 %2, ptr %12, align 8
  store i64 %3, ptr %13, align 8
  store i64 %4, ptr %14, align 8
  store i32 %5, ptr %15, align 4
  %20 = load i8, ptr %11, align 1
  %21 = zext i8 %20 to i32
  %22 = icmp eq i32 %21, 1
  br i1 %22, label %23, label %24

23:                                               ; preds = %6
  store i32 24, ptr %16, align 4
  br label %43

24:                                               ; preds = %6
  %25 = load i8, ptr %11, align 1
  %26 = zext i8 %25 to i32
  %27 = icmp eq i32 %26, 2
  br i1 %27, label %28, label %29

28:                                               ; preds = %24
  store i32 25, ptr %16, align 4
  br label %42

29:                                               ; preds = %24
  %30 = load i8, ptr %11, align 1
  %31 = zext i8 %30 to i32
  %32 = icmp eq i32 %31, 3
  br i1 %32, label %33, label %34

33:                                               ; preds = %29
  store i32 26, ptr %16, align 4
  br label %41

34:                                               ; preds = %29
  %35 = load i8, ptr %11, align 1
  %36 = zext i8 %35 to i32
  %37 = icmp eq i32 %36, 4
  br i1 %37, label %38, label %39

38:                                               ; preds = %34
  store i32 27, ptr %16, align 4
  br label %40

39:                                               ; preds = %34
  unreachable

40:                                               ; preds = %38
  br label %41

41:                                               ; preds = %40, %33
  br label %42

42:                                               ; preds = %41, %28
  br label %43

43:                                               ; preds = %42, %23
  %44 = load ptr, ptr %10, align 8
  %45 = load i64, ptr %12, align 8
  %46 = call i32 @jit_Z_DVAL(ptr noundef %44, i64 noundef %45)
  store i32 %46, ptr %17, align 4
  %47 = load ptr, ptr %10, align 8
  %48 = load i64, ptr %13, align 8
  %49 = call i32 @jit_Z_LVAL(ptr noundef %47, i64 noundef %48)
  store i32 %49, ptr %18, align 4
  %50 = load ptr, ptr %10, align 8
  %51 = getelementptr inbounds %struct._zend_jit_ctx, ptr %50, i32 0, i32 0
  %52 = load i32, ptr %16, align 4
  %53 = trunc i32 %52 to i16
  %54 = zext i16 %53 to i32
  %55 = or i32 %54, 3072
  %56 = load i32, ptr %17, align 4
  %57 = load ptr, ptr %10, align 8
  %58 = getelementptr inbounds %struct._zend_jit_ctx, ptr %57, i32 0, i32 0
  %59 = load i32, ptr %18, align 4
  %60 = call i32 @ir_fold1(ptr noundef %58, i32 noundef 3107, i32 noundef %59)
  %61 = call i32 @ir_fold2(ptr noundef %51, i32 noundef %55, i32 noundef %56, i32 noundef %60)
  store i32 %61, ptr %19, align 4
  %62 = load ptr, ptr %10, align 8
  %63 = load i64, ptr %14, align 8
  %64 = load i32, ptr %19, align 4
  call void @jit_set_Z_DVAL(ptr noundef %62, i64 noundef %63, i32 noundef %64)
  %65 = load i64, ptr %14, align 8
  %66 = and i64 %65, 3
  %67 = icmp ne i64 %66, 2
  br i1 %67, label %68, label %115

68:                                               ; preds = %43
  %69 = load i64, ptr %12, align 8
  %70 = load i64, ptr %14, align 8
  store i64 %69, ptr %8, align 8
  store i64 %70, ptr %9, align 8
  %71 = load i64, ptr %8, align 8
  %72 = load i64, ptr %9, align 8
  %73 = icmp eq i64 %71, %72
  br i1 %73, label %74, label %75

74:                                               ; preds = %68
  store i1 true, ptr %7, align 1
  br label %104

75:                                               ; preds = %68
  %76 = load i64, ptr %8, align 8
  %77 = and i64 %76, 3
  %78 = icmp eq i64 %77, 2
  br i1 %78, label %79, label %89

79:                                               ; preds = %75
  %80 = load i64, ptr %9, align 8
  %81 = and i64 %80, 3
  %82 = icmp eq i64 %81, 2
  br i1 %82, label %83, label %89

83:                                               ; preds = %79
  %84 = load i64, ptr %8, align 8
  %85 = lshr i64 %84, 2
  %86 = load i64, ptr %9, align 8
  %87 = lshr i64 %86, 2
  %88 = icmp eq i64 %85, %87
  store i1 %88, ptr %7, align 1
  br label %104

89:                                               ; preds = %79, %75
  %90 = load i64, ptr %8, align 8
  %91 = and i64 %90, 3
  %92 = icmp eq i64 %91, 3
  br i1 %92, label %93, label %103

93:                                               ; preds = %89
  %94 = load i64, ptr %9, align 8
  %95 = and i64 %94, 3
  %96 = icmp eq i64 %95, 3
  br i1 %96, label %97, label %103

97:                                               ; preds = %93
  %98 = load i64, ptr %8, align 8
  %99 = lshr i64 %98, 2
  %100 = load i64, ptr %9, align 8
  %101 = lshr i64 %100, 2
  %102 = icmp eq i64 %99, %101
  store i1 %102, ptr %7, align 1
  br label %104

103:                                              ; preds = %93, %89
  store i1 false, ptr %7, align 1
  br label %104

104:                                              ; preds = %103, %97, %83, %74
  %105 = load i1, ptr %7, align 1
  br i1 %105, label %114, label %106

106:                                              ; preds = %104
  %107 = load i32, ptr %15, align 4
  %108 = and i32 %107, 268437503
  %109 = icmp ne i32 %108, 32
  br i1 %109, label %110, label %113

110:                                              ; preds = %106
  %111 = load ptr, ptr %10, align 8
  %112 = load i64, ptr %14, align 8
  call void @jit_set_Z_TYPE_INFO(ptr noundef %111, i64 noundef %112, i32 noundef 5)
  br label %113

113:                                              ; preds = %110, %106
  br label %114

114:                                              ; preds = %113, %104
  br label %115

115:                                              ; preds = %114, %43
  ret i32 1
}