; Function Attrs: nounwind uwtable
define internal fastcc void @zend_jit_math_double_long(ptr noundef %0, i8 noundef zeroext %1, i64 noundef %2, i64 noundef %3, i64 noundef %4, i32 noundef %5) unnamed_addr #0 {
  %switch.tableidx = add i8 %1, -1
  %7 = icmp ult i8 %switch.tableidx, 3
  br i1 %7, label %switch.lookup, label %8

8:                                                ; preds = %6
  %9 = icmp eq i8 %1, 4
  tail call void @llvm.assume(i1 %9)
  br label %10

switch.lookup:                                    ; preds = %6
  %switch.idx.cast = zext nneg i8 %switch.tableidx to i32
  %switch.offset = or disjoint i32 %switch.idx.cast, 3096
  br label %10

10:                                               ; preds = %switch.lookup, %8
  %.032 = phi i32 [ 3099, %8 ], [ %switch.offset, %switch.lookup ]
  %11 = tail call fastcc i32 @jit_Z_DVAL(ptr noundef %0, i64 noundef %2)
  %12 = tail call fastcc i32 @jit_Z_LVAL(ptr noundef %0, i64 noundef %3)
  %13 = tail call i32 @ir_fold1(ptr noundef %0, i32 noundef 3107, i32 noundef %12) #32
  %14 = tail call i32 @ir_fold2(ptr noundef %0, i32 noundef %.032, i32 noundef %11, i32 noundef %13) #32
  %15 = and i64 %4, 3
  %16 = icmp eq i64 %15, 2
  br i1 %16, label %jit_set_Z_DVAL.exit.thread, label %jit_set_Z_DVAL.exit

jit_set_Z_DVAL.exit.thread:                       ; preds = %10
  tail call fastcc void @zend_jit_def_reg(ptr noundef %0, i64 noundef %4, i32 noundef %14)
  br label %.critedge

jit_set_Z_DVAL.exit:                              ; preds = %10
  %17 = tail call fastcc i32 @jit_ZVAL_ADDR(ptr noundef %0, i64 noundef %4)
  tail call void @_ir_STORE(ptr noundef %0, i32 noundef %17, i32 noundef %14) #32
  %18 = icmp eq i64 %2, %4
  br i1 %18, label %.critedge, label %19

19:                                               ; preds = %jit_set_Z_DVAL.exit
  %20 = and i64 %15, %2
  %or.cond = icmp eq i64 %20, 3
  br i1 %or.cond, label %21, label %.critedge39

21:                                               ; preds = %19
  %.unshifted = xor i64 %4, %2
  %22 = icmp ult i64 %.unshifted, 4
  %23 = and i32 %5, 268437503
  %.not37 = icmp eq i32 %23, 32
  %or.cond40 = or i1 %22, %.not37
  br i1 %or.cond40, label %.critedge, label %.thread

.critedge39:                                      ; preds = %19
  %.old = and i32 %5, 268437503
  %.not37.old = icmp eq i32 %.old, 32
  br i1 %.not37.old, label %.critedge, label %24

24:                                               ; preds = %.critedge39
  %25 = icmp eq i64 %15, 1
  br i1 %25, label %26, label %.thread

26:                                               ; preds = %24
  %27 = and i64 %4, 252
  %28 = icmp eq i64 %27, 56
  %29 = load ptr, ptr getelementptr inbounds (%struct._zend_jit_globals, ptr @jit_globals, i64 0, i32 27), align 8
  %30 = icmp ne ptr %29, null
  %or.cond.i = select i1 %28, i1 %30, i1 false
  br i1 %or.cond.i, label %31, label %.thread

31:                                               ; preds = %26
  %32 = getelementptr inbounds i8, ptr %29, i64 60
  %33 = lshr i64 %4, 12
  %34 = and i64 %33, 268435455
  %35 = add nuw nsw i64 %34, 4294967291
  %36 = and i64 %35, 4294967295
  %37 = getelementptr inbounds [1 x %struct._zend_jit_trace_stack], ptr %32, i64 0, i64 %36
  %38 = getelementptr inbounds i8, ptr %37, i64 1
  %39 = load i8, ptr %38, align 1
  %40 = icmp eq i8 %39, 5
  br i1 %40, label %.critedge, label %.thread

.thread:                                          ; preds = %21, %31, %26, %24
  %41 = tail call i32 @ir_const_u32(ptr noundef %0, i32 noundef 5) #32
  tail call fastcc void @jit_set_Z_TYPE_INFO_ex(ptr noundef %0, i64 noundef %4, i32 noundef %41)
  br label %.critedge

.critedge:                                        ; preds = %.thread, %31, %jit_set_Z_DVAL.exit.thread, %21, %.critedge39, %jit_set_Z_DVAL.exit
  ret void
}